; Function Attrs: nounwind uwtable
define hidden void @luaC_fullgc(ptr noundef %0, i32 noundef %1) local_unnamed_addr #0 {
  %3 = getelementptr inbounds nuw i8, ptr %0, i64 24
  %4 = load ptr, ptr %3, align 8, !tbaa !4
  %5 = trunc i32 %1 to i8
  %6 = getelementptr inbounds nuw i8, ptr %4, i64 111
  store i8 %5, ptr %6, align 1, !tbaa !67
  %7 = getelementptr inbounds nuw i8, ptr %4, i64 108
  %8 = load i8, ptr %7, align 4, !tbaa !29
  switch i8 %8, label %46 [
    i8 1, label %9
    i8 0, label %44
    i8 2, label %45
  ]

9:                                                ; preds = %2
  %10 = getelementptr inbounds nuw i8, ptr %4, i64 32
  %11 = load i64, ptr %10, align 8, !tbaa !31
  %12 = getelementptr inbounds nuw i8, ptr %4, i64 40
  store i64 %11, ptr %12, align 8, !tbaa !55
  store i8 0, ptr %7, align 4, !tbaa !29
  %13 = getelementptr inbounds nuw i8, ptr %4, i64 192
  %14 = getelementptr inbounds nuw i8, ptr %4, i64 224
  tail call void @llvm.memset.p0.i64(ptr noundef nonnull align 8 dereferenceable(24) %13, i8 0, i64 24, i1 false)
  tail call void @llvm.memset.p0.i64(ptr noundef nonnull align 8 dereferenceable(24) %14, i8 0, i64 24, i1 false)
  %15 = load ptr, ptr %3, align 8, !tbaa !4
  %16 = getelementptr inbounds nuw i8, ptr %15, i64 107
  store i8 3, ptr %16, align 1, !tbaa !20
  %17 = getelementptr inbounds nuw i8, ptr %15, i64 112
  %.pre.i.i.i = load ptr, ptr %17, align 8, !tbaa !46
  br label %18

18:                                               ; preds = %sweeplist.exit.i.i.i.i, %9
  %19 = phi ptr [ %.pre.i.i.i, %9 ], [ %25, %sweeplist.exit.i.i.i.i ]
  %.0.i.i.i.i = phi ptr [ %17, %9 ], [ %.023.i.i.i.i.i, %sweeplist.exit.i.i.i.i ]
  %20 = load ptr, ptr %3, align 8, !tbaa !4
  %21 = getelementptr inbounds nuw i8, ptr %20, i64 106
  %22 = load i8, ptr %21, align 2, !tbaa !30
  %23 = xor i8 %22, 24
  %24 = and i8 %22, 24
  %.not21.i.i.i.i.i = icmp eq ptr %19, null
  br i1 %.not21.i.i.i.i.i, label %fullgen.exit, label %.lr.ph.i.i.i.i.i

.lr.ph.i.i.i.i.i:                                 ; preds = %18, %36
  %25 = phi ptr [ %37, %36 ], [ %19, %18 ]
  %.023.i.i.i.i.i = phi ptr [ %.1.i.i.i.i.i, %36 ], [ %.0.i.i.i.i, %18 ]
  %.01822.i.i.i.i.i = phi i64 [ %26, %36 ], [ 1, %18 ]
  %26 = add nsw i64 %.01822.i.i.i.i.i, -1
  %.not.i.i.i.i = icmp eq i64 %.01822.i.i.i.i.i, 0
  br i1 %.not.i.i.i.i, label %sweeplist.exit.i.i.i.i, label %27

27:                                               ; preds = %.lr.ph.i.i.i.i.i
  %28 = getelementptr inbounds nuw i8, ptr %25, i64 9
  %29 = load i8, ptr %28, align 1, !tbaa !27
  %30 = and i8 %29, %23
  %.not20.i.i.i.i.i = icmp eq i8 %30, 0
  br i1 %.not20.i.i.i.i.i, label %33, label %31

31:                                               ; preds = %27
  %32 = load ptr, ptr %25, align 8, !tbaa !47
  store ptr %32, ptr %.023.i.i.i.i.i, align 8, !tbaa !46
  tail call fastcc void @freeobj(ptr noundef %0, ptr noundef nonnull %25)
  br label %36

33:                                               ; preds = %27
  %34 = and i8 %29, -64
  %35 = or disjoint i8 %34, %24
  store i8 %35, ptr %28, align 1, !tbaa !27
  br label %36

36:                                               ; preds = %33, %31
  %.1.i.i.i.i.i = phi ptr [ %.023.i.i.i.i.i, %31 ], [ %25, %33 ]
  %37 = load ptr, ptr %.1.i.i.i.i.i, align 8, !tbaa !46
  %.not.i.i.i.i.i = icmp eq ptr %37, null
  br i1 %.not.i.i.i.i.i, label %fullgen.exit, label %.lr.ph.i.i.i.i.i

sweeplist.exit.i.i.i.i:                           ; preds = %.lr.ph.i.i.i.i.i
  %38 = icmp eq ptr %.023.i.i.i.i.i, %17
  br i1 %38, label %18, label %fullgen.exit

fullgen.exit:                                     ; preds = %18, %sweeplist.exit.i.i.i.i, %36
  %39 = phi ptr [ null, %36 ], [ %.023.i.i.i.i.i, %sweeplist.exit.i.i.i.i ], [ null, %18 ]
  %40 = getelementptr inbounds nuw i8, ptr %15, i64 120
  store ptr %39, ptr %40, align 8, !tbaa !53
  %41 = getelementptr inbounds nuw i8, ptr %4, i64 105
  %42 = load i8, ptr %41, align 1, !tbaa !33
  %43 = tail call i64 @luaO_applyparam(i8 noundef zeroext %42, i64 noundef 100) #8
  tail call void @luaE_setdebt(ptr noundef %4, i64 noundef %43) #8
  tail call fastcc void @entergen(ptr noundef %0, ptr noundef %4)
  br label %46

44:                                               ; preds = %2
  tail call fastcc void @fullinc(ptr noundef nonnull %0, ptr noundef nonnull %4)
  br label %46

45:                                               ; preds = %2
  store i8 0, ptr %7, align 4, !tbaa !29
  tail call fastcc void @fullinc(ptr noundef nonnull %0, ptr noundef nonnull %4)
  store i8 2, ptr %7, align 4, !tbaa !29
  br label %46

46:                                               ; preds = %45, %44, %fullgen.exit, %2
  store i8 0, ptr %6, align 1, !tbaa !67
  ret void
}